; Function Attrs: mustprogress uwtable
define noundef zeroext i1 @_ZN3g2o16OptimizableGraph4loadEPKc(ptr noundef nonnull align 8 dereferenceable(288) %0, ptr noundef %1) local_unnamed_addr #4 align 2 personality ptr @__gxx_personality_v0 {
  %3 = alloca %"class.std::basic_ifstream", align 8
  call void @llvm.lifetime.start.p0(i64 520, ptr nonnull %3) #45
  call void @_ZNSt14basic_ifstreamIcSt11char_traitsIcEEC1EPKcSt13_Ios_Openmode(ptr noundef nonnull align 8 dereferenceable(256) %3, ptr noundef %1, i32 noundef 8)
  %4 = load ptr, ptr %3, align 8, !tbaa !9
  %5 = getelementptr i8, ptr %4, i64 -24
  %6 = load i64, ptr %5, align 8
  %7 = getelementptr inbounds i8, ptr %3, i64 %6
  %8 = getelementptr inbounds nuw i8, ptr %7, i64 32
  %9 = load i32, ptr %8, align 8, !tbaa !152
  %10 = and i32 %9, 5
  %.not = icmp eq i32 %10, 0
  br i1 %.not, label %13, label %18

11:                                               ; preds = %13
  %12 = landingpad { ptr, i32 }
          cleanup
  call void @_ZNSt14basic_ifstreamIcSt11char_traitsIcEED1Ev(ptr noundef nonnull align 8 dereferenceable(256) %3) #45
  call void @llvm.lifetime.end.p0(i64 520, ptr nonnull %3) #45
  resume { ptr, i32 } %12

13:                                               ; preds = %2
  %14 = load ptr, ptr %0, align 8, !tbaa !9
  %15 = getelementptr inbounds nuw i8, ptr %14, i64 144
  %16 = load ptr, ptr %15, align 8
  %17 = invoke noundef zeroext i1 %16(ptr noundef nonnull align 8 dereferenceable(288) %0, ptr noundef nonnull align 8 dereferenceable(16) %3)
          to label %18 unwind label %11

18:                                               ; preds = %13, %2
  %.0 = phi i1 [ false, %2 ], [ %17, %13 ]
  call void @_ZNSt14basic_ifstreamIcSt11char_traitsIcEED1Ev(ptr noundef nonnull align 8 dereferenceable(256) %3) #45
  call void @llvm.lifetime.end.p0(i64 520, ptr nonnull %3) #45
  ret i1 %.0
}